; Function Attrs: mustprogress uwtable
define ptr @umsg_getLocale_77(ptr noundef %0) local_unnamed_addr #1 {
  %2 = icmp eq ptr %0, null
  br i1 %2, label %10, label %3

3:                                                ; preds = %1
  %4 = load ptr, ptr %0, align 8, !tbaa !34
  %5 = getelementptr inbounds nuw i8, ptr %4, i64 72
  %6 = load ptr, ptr %5, align 8
  %7 = tail call noundef nonnull align 8 dereferenceable(217) ptr %6(ptr noundef nonnull align 8 dereferenceable(512) %0)
  %8 = getelementptr inbounds nuw i8, ptr %7, i64 40
  %9 = load ptr, ptr %8, align 8, !tbaa !69
  br label %10

10:                                               ; preds = %1, %3
  %.0 = phi ptr [ %9, %3 ], [ @.str, %1 ]
  ret ptr %.0
}